; Function Attrs: nounwind uwtable
define hidden ptr @_PyCompile_MaybeMangle(ptr noundef readonly captures(none) %0, ptr noundef %1) local_unnamed_addr #0 {
  %3 = getelementptr inbounds nuw i8, ptr %0, i64 64
  %4 = load ptr, ptr %3, align 8, !tbaa !42
  %5 = getelementptr inbounds nuw i8, ptr %4, i64 16
  %6 = load ptr, ptr %5, align 8, !tbaa !65
  %7 = load ptr, ptr %4, align 8, !tbaa !48
  %8 = tail call ptr @_Py_MaybeMangle(ptr noundef %6, ptr noundef %7, ptr noundef %1) #11
  ret ptr %8
}